target datalayout = "e-m:e-p270:32:32-p271:32:32-p272:64:64-i64:64-i128:128-f80:128-n8:16:32:64-S128"
target triple = "x86_64-pc-linux-gnu"

%"class.casadi::Function" = type { %"class.casadi::SharedObject" }
%"class.casadi::SharedObject" = type { ptr }
%"class.std::vector.55" = type { %"struct.std::_Vector_base.56" }
%"struct.std::_Vector_base.56" = type { %"struct.std::_Vector_base<casadi::Matrix<casadi::SXElem>, std::allocator<casadi::Matrix<casadi::SXElem>>>::_Vector_impl" }
%"struct.std::_Vector_base<casadi::Matrix<casadi::SXElem>, std::allocator<casadi::Matrix<casadi::SXElem>>>::_Vector_impl" = type { %"struct.std::_Vector_base<casadi::Matrix<casadi::SXElem>, std::allocator<casadi::Matrix<casadi::SXElem>>>::_Vector_impl_data" }
%"struct.std::_Vector_base<casadi::Matrix<casadi::SXElem>, std::allocator<casadi::Matrix<casadi::SXElem>>>::_Vector_impl_data" = type { ptr, ptr, ptr }

; Function Attrs: mustprogress nounwind uwtable
define linkonce_odr hidden void @_ZNSt15__new_allocatorIN6casadi6MatrixINS0_6SXElemEEEEC2Ev(ptr noundef nonnull align 1 dereferenceable(1) %0) unnamed_addr #7 comdat align 2 {
  %2 = alloca ptr, align 8
  store ptr %0, ptr %2, align 8
  ret void
}

; Function Attrs: mustprogress nounwind uwtable
define linkonce_odr hidden void @_ZNSt12_Vector_baseIN6casadi6MatrixINS0_6SXElemEEESaIS3_EE17_Vector_impl_dataC2Ev(ptr noundef nonnull align 8 dereferenceable(24) %0) unnamed_addr #7 comdat align 2 {
  %2 = alloca ptr, align 8
  store ptr %0, ptr %2, align 8
  %3 = load ptr, ptr %2, align 8
  %4 = getelementptr inbounds %"struct.std::_Vector_base<casadi::Matrix<casadi::SXElem>, std::allocator<casadi::Matrix<casadi::SXElem>>>::_Vector_impl_data", ptr %3, i32 0, i32 0
  store ptr null, ptr %4, align 8
  %5 = getelementptr inbounds %"struct.std::_Vector_base<casadi::Matrix<casadi::SXElem>, std::allocator<casadi::Matrix<casadi::SXElem>>>::_Vector_impl_data", ptr %3, i32 0, i32 1
  store ptr null, ptr %5, align 8
  %6 = getelementptr inbounds %"struct.std::_Vector_base<casadi::Matrix<casadi::SXElem>, std::allocator<casadi::Matrix<casadi::SXElem>>>::_Vector_impl_data", ptr %3, i32 0, i32 2
  store ptr null, ptr %6, align 8
  ret void
}

; Function Attrs: mustprogress nounwind uwtable
define linkonce_odr hidden void @_ZNSaIN6casadi6MatrixINS_6SXElemEEEEC2Ev(ptr noundef nonnull align 1 dereferenceable(1) %0) unnamed_addr #7 comdat align 2 {
  %2 = alloca ptr, align 8
  store ptr %0, ptr %2, align 8
  %3 = load ptr, ptr %2, align 8
  call void @_ZNSt15__new_allocatorIN6casadi6MatrixINS0_6SXElemEEEEC2Ev(ptr noundef nonnull align 1 dereferenceable(1) %3) #3
  ret void
}

; Function Attrs: mustprogress nounwind uwtable
define linkonce_odr hidden void @_ZNSt12_Vector_baseIN6casadi6MatrixINS0_6SXElemEEESaIS3_EE12_Vector_implC2Ev(ptr noundef nonnull align 8 dereferenceable(24) %0) unnamed_addr #7 comdat align 2 {
  %2 = alloca ptr, align 8
  store ptr %0, ptr %2, align 8
  %3 = load ptr, ptr %2, align 8
  call void @_ZNSaIN6casadi6MatrixINS_6SXElemEEEEC2Ev(ptr noundef nonnull align 1 dereferenceable(1) %3) #3
  call void @_ZNSt12_Vector_baseIN6casadi6MatrixINS0_6SXElemEEESaIS3_EE17_Vector_impl_dataC2Ev(ptr noundef nonnull align 8 dereferenceable(24) %3) #3
  ret void
}

; Function Attrs: mustprogress nounwind uwtable
define linkonce_odr hidden void @_ZNSt12_Vector_baseIN6casadi6MatrixINS0_6SXElemEEESaIS3_EEC2Ev(ptr noundef nonnull align 8 dereferenceable(24) %0) unnamed_addr #7 comdat align 2 {
  %2 = alloca ptr, align 8
  store ptr %0, ptr %2, align 8
  %3 = load ptr, ptr %2, align 8
  %4 = getelementptr inbounds %"struct.std::_Vector_base.56", ptr %3, i32 0, i32 0
  call void @_ZNSt12_Vector_baseIN6casadi6MatrixINS0_6SXElemEEESaIS3_EE12_Vector_implC2Ev(ptr noundef nonnull align 8 dereferenceable(24) %4) #3
  ret void
}

; Function Attrs: mustprogress nounwind uwtable
define linkonce_odr hidden void @_ZNSt6vectorIN6casadi6MatrixINS0_6SXElemEEESaIS3_EEC2Ev(ptr noundef nonnull align 8 dereferenceable(24) %0) unnamed_addr #7 comdat align 2 {
  %2 = alloca ptr, align 8
  store ptr %0, ptr %2, align 8
  %3 = load ptr, ptr %2, align 8
  call void @_ZNSt12_Vector_baseIN6casadi6MatrixINS0_6SXElemEEESaIS3_EEC2Ev(ptr noundef nonnull align 8 dereferenceable(24) %3) #3
  ret void
}

; Function Attrs: mustprogress uwtable
define void @_ZN6casadi16DeserializerBase22blind_unpack_sx_vectorEv(ptr dead_on_unwind noalias writable sret(%"class.std::vector.55") align 8 %0, ptr noundef nonnull align 8 dereferenceable(16) %1) #4 align 2 personality ptr @__gxx_personality_v0 {
  %3 = alloca ptr, align 8
  %4 = alloca ptr, align 8
  %5 = alloca %"class.casadi::Function", align 8
  %6 = alloca ptr, align 8
  %7 = alloca i32, align 4
  %8 = alloca i1, align 1
  store ptr %0, ptr %3, align 8
  store ptr %1, ptr %4, align 8
  %9 = load ptr, ptr %4, align 8
  call void @_ZN6casadi8FunctionC1Ev(ptr noundef nonnull align 8 dereferenceable(8) %5)
  %10 = invoke noundef nonnull align 8 dereferenceable(41) ptr @_ZN6casadi16DeserializerBase12deserializerEv(ptr noundef nonnull align 8 dereferenceable(16) %9)
          to label %11 unwind label %17

11:                                               ; preds = %2
  invoke void @_ZN6casadi19DeserializingStream6unpackERNS_8FunctionE(ptr noundef nonnull align 8 dereferenceable(41) %10, ptr noundef nonnull align 8 dereferenceable(8) %5)
          to label %12 unwind label %17

12:                                               ; preds = %11
  store i1 false, ptr %8, align 1
  call void @_ZNSt6vectorIN6casadi6MatrixINS0_6SXElemEEESaIS3_EEC2Ev(ptr noundef nonnull align 8 dereferenceable(24) %0) #3
  %13 = invoke noundef nonnull align 8 dereferenceable(41) ptr @_ZN6casadi16DeserializerBase12deserializerEv(ptr noundef nonnull align 8 dereferenceable(16) %9)
          to label %14 unwind label %21

14:                                               ; preds = %12
  invoke void @_ZN6casadi19DeserializingStream6unpackINS_6MatrixINS_6SXElemEEEEEvRSt6vectorIT_SaIS6_EE(ptr noundef nonnull align 8 dereferenceable(41) %13, ptr noundef nonnull align 8 dereferenceable(24) %0)
          to label %15 unwind label %21

15:                                               ; preds = %14
  store i1 true, ptr %8, align 1
  %16 = load i1, ptr %8, align 1
  br i1 %16, label %26, label %25

17:                                               ; preds = %11, %2
  %18 = landingpad { ptr, i32 }
          cleanup
  %19 = extractvalue { ptr, i32 } %18, 0
  store ptr %19, ptr %6, align 8
  %20 = extractvalue { ptr, i32 } %18, 1
  store i32 %20, ptr %7, align 4
  br label %27

21:                                               ; preds = %14, %12
  %22 = landingpad { ptr, i32 }
          cleanup
  %23 = extractvalue { ptr, i32 } %22, 0
  store ptr %23, ptr %6, align 8
  %24 = extractvalue { ptr, i32 } %22, 1
  store i32 %24, ptr %7, align 4
  call void @_ZNSt6vectorIN6casadi6MatrixINS0_6SXElemEEESaIS3_EED2Ev(ptr noundef nonnull align 8 dereferenceable(24) %0) #3
  br label %27

25:                                               ; preds = %15
  call void @_ZNSt6vectorIN6casadi6MatrixINS0_6SXElemEEESaIS3_EED2Ev(ptr noundef nonnull align 8 dereferenceable(24) %0) #3
  br label %26

26:                                               ; preds = %25, %15
  call void @_ZN6casadi8FunctionD1Ev(ptr noundef nonnull align 8 dereferenceable(8) %5) #3
  ret void

27:                                               ; preds = %21, %17
  call void @_ZN6casadi8FunctionD1Ev(ptr noundef nonnull align 8 dereferenceable(8) %5) #3
  br label %28

28:                                               ; preds = %27
  %29 = load ptr, ptr %6, align 8
  %30 = load i32, ptr %7, align 4
  %31 = insertvalue { ptr, i32 } poison, ptr %29, 0
  %32 = insertvalue { ptr, i32 } %31, i32 %30, 1
  resume { ptr, i32 } %32
}